; Function Attrs: mustprogress nofree norecurse nosync nounwind willreturn memory(read, inaccessiblemem: none) uwtable
define noundef range(i32 0, 65536) i32 @_ZNK6icu_7721CollationRootElements17getTertiaryBeforeEjjj(ptr noundef nonnull readonly align 8 captures(none) dereferenceable(12) %0, i32 noundef %1, i32 noundef %2, i32 noundef %3) local_unnamed_addr #0 align 2 {
  %5 = icmp eq i32 %1, 0
  br i1 %5, label %6, label %13

6:                                                ; preds = %4
  %7 = icmp eq i32 %2, 0
  %8 = load ptr, ptr %0, align 8
  %.016 = select i1 %7, i32 0, i32 256
  %.0.in.idx = select i1 %7, i64 0, i64 4
  %.0.in = getelementptr inbounds nuw i8, ptr %8, i64 %.0.in.idx
  %.0 = load i32, ptr %.0.in, align 4, !tbaa !10
  %9 = sext i32 %.0 to i64
  %10 = getelementptr inbounds i32, ptr %8, i64 %9
  %11 = load i32, ptr %10, align 4, !tbaa !10
  %12 = and i32 %11, -129
  br label %59

13:                                               ; preds = %4
  %14 = load ptr, ptr %0, align 8, !tbaa !3
  %15 = getelementptr inbounds nuw i8, ptr %14, i64 8
  %16 = load i32, ptr %15, align 4, !tbaa !10
  %17 = getelementptr inbounds nuw i8, ptr %0, i64 8
  %18 = load i32, ptr %17, align 8, !tbaa !11
  %19 = add nsw i32 %18, -1
  %20 = add nsw i32 %16, 1
  %21 = icmp slt i32 %20, %19
  br i1 %21, label %.lr.ph.i, label %_ZNK6icu_7721CollationRootElements11findPrimaryEj.exit

.lr.ph.i:                                         ; preds = %13, %._crit_edge62.i.i
  %.038.i11.i = phi i32 [ %.033..038.i.i, %._crit_edge62.i.i ], [ %19, %13 ]
  %.041.i10.i = phi i32 [ %.041..033.i.i, %._crit_edge62.i.i ], [ %16, %13 ]
  %22 = add nsw i32 %.041.i10.i, %.038.i11.i
  %23 = sdiv i32 %22, 2
  %24 = sext i32 %23 to i64
  %25 = getelementptr inbounds i32, ptr %14, i64 %24
  %26 = load i32, ptr %25, align 4, !tbaa !10
  %27 = and i32 %26, 128
  %.not.i.i = icmp eq i32 %27, 0
  br i1 %.not.i.i, label %._crit_edge62.i.i, label %.preheader52.i.i

.preheader52.i.i:                                 ; preds = %.lr.ph.i
  %.02953.i.i = add nsw i32 %23, 1
  %28 = icmp eq i32 %.02953.i.i, %.038.i11.i
  br i1 %28, label %.preheader.i.i, label %.lr.ph.preheader.i.i

.lr.ph.preheader.i.i:                             ; preds = %.preheader52.i.i
  %29 = add nsw i64 %24, 1
  br label %.lr.ph.i.i

30:                                               ; preds = %.lr.ph.i.i
  %indvars.iv.next.i.i = add nsw i64 %indvars.iv.i.i, 1
  %31 = trunc nsw i64 %indvars.iv.next.i.i to i32
  %32 = icmp eq i32 %.038.i11.i, %31
  br i1 %32, label %.preheader.i.i, label %.lr.ph.i.i, !llvm.loop !12

.lr.ph.i.i:                                       ; preds = %30, %.lr.ph.preheader.i.i
  %indvars.iv.i.i = phi i64 [ %29, %.lr.ph.preheader.i.i ], [ %indvars.iv.next.i.i, %30 ]
  %33 = getelementptr inbounds i32, ptr %14, i64 %indvars.iv.i.i
  %34 = load i32, ptr %33, align 4, !tbaa !10
  %35 = and i32 %34, 128
  %36 = icmp eq i32 %35, 0
  br i1 %36, label %._crit_edge62.loopexit90.i.i, label %30, !llvm.loop !12

.preheader.i.i:                                   ; preds = %30, %.preheader52.i.i
  %.13059.i.i = add nsw i32 %23, -1
  %37 = icmp eq i32 %.13059.i.i, %.041.i10.i
  br i1 %37, label %_ZNK6icu_7721CollationRootElements11findPrimaryEj.exit, label %.lr.ph61.preheader.i.i

.lr.ph61.preheader.i.i:                           ; preds = %.preheader.i.i
  %38 = sext i32 %.13059.i.i to i64
  br label %.lr.ph61.i.i

39:                                               ; preds = %.lr.ph61.i.i
  %indvars.iv.next71.i.i = add nsw i64 %indvars.iv70.i.i, -1
  %40 = trunc nsw i64 %indvars.iv.next71.i.i to i32
  %41 = icmp eq i32 %.041.i10.i, %40
  br i1 %41, label %_ZNK6icu_7721CollationRootElements11findPrimaryEj.exit, label %.lr.ph61.i.i, !llvm.loop !14

.lr.ph61.i.i:                                     ; preds = %39, %.lr.ph61.preheader.i.i
  %indvars.iv70.i.i = phi i64 [ %38, %.lr.ph61.preheader.i.i ], [ %indvars.iv.next71.i.i, %39 ]
  %42 = getelementptr inbounds i32, ptr %14, i64 %indvars.iv70.i.i
  %43 = load i32, ptr %42, align 4, !tbaa !10
  %44 = and i32 %43, 128
  %45 = icmp eq i32 %44, 0
  br i1 %45, label %._crit_edge62.loopexit.i.i, label %39, !llvm.loop !14

._crit_edge62.loopexit.i.i:                       ; preds = %.lr.ph61.i.i
  %46 = trunc nsw i64 %indvars.iv70.i.i to i32
  br label %._crit_edge62.i.i

._crit_edge62.loopexit90.i.i:                     ; preds = %.lr.ph.i.i
  %47 = trunc nsw i64 %indvars.iv.i.i to i32
  br label %._crit_edge62.i.i

._crit_edge62.i.i:                                ; preds = %._crit_edge62.loopexit90.i.i, %._crit_edge62.loopexit.i.i, %.lr.ph.i
  %.033.i.i = phi i32 [ %23, %.lr.ph.i ], [ %46, %._crit_edge62.loopexit.i.i ], [ %47, %._crit_edge62.loopexit90.i.i ]
  %.031.i.i = phi i32 [ %26, %.lr.ph.i ], [ %43, %._crit_edge62.loopexit.i.i ], [ %34, %._crit_edge62.loopexit90.i.i ]
  %48 = and i32 %.031.i.i, -256
  %49 = icmp ult i32 %1, %48
  %.041..033.i.i = select i1 %49, i32 %.041.i10.i, i32 %.033.i.i
  %.033..038.i.i = select i1 %49, i32 %.033.i.i, i32 %.038.i11.i
  %50 = add nsw i32 %.041..033.i.i, 1
  %51 = icmp slt i32 %50, %.033..038.i.i
  br i1 %51, label %.lr.ph.i, label %_ZNK6icu_7721CollationRootElements11findPrimaryEj.exit

_ZNK6icu_7721CollationRootElements11findPrimaryEj.exit: ; preds = %.preheader.i.i, %._crit_edge62.i.i, %39, %13
  %.041.i9.i = phi i32 [ %16, %13 ], [ %.041.i10.i, %39 ], [ %.041..033.i.i, %._crit_edge62.i.i ], [ %.041.i10.i, %.preheader.i.i ]
  %52 = add nsw i32 %.041.i9.i, 1
  %53 = sext i32 %52 to i64
  %54 = getelementptr inbounds i32, ptr %14, i64 %53
  %55 = load i32, ptr %54, align 4, !tbaa !10
  %56 = and i32 %55, 128
  %57 = icmp eq i32 %56, 0
  %58 = and i32 %55, -129
  %..i = tail call i32 @llvm.umin.i32(i32 %58, i32 83887360)
  %.0.i = select i1 %57, i32 83887360, i32 %..i
  br label %59

59:                                               ; preds = %_ZNK6icu_7721CollationRootElements11findPrimaryEj.exit, %6
  %60 = phi ptr [ %8, %6 ], [ %14, %_ZNK6icu_7721CollationRootElements11findPrimaryEj.exit ]
  %.117 = phi i32 [ %.016, %6 ], [ 256, %_ZNK6icu_7721CollationRootElements11findPrimaryEj.exit ]
  %.014 = phi i32 [ %12, %6 ], [ %.0.i, %_ZNK6icu_7721CollationRootElements11findPrimaryEj.exit ]
  %.1 = phi i32 [ %.0, %6 ], [ %52, %_ZNK6icu_7721CollationRootElements11findPrimaryEj.exit ]
  %61 = shl i32 %2, 16
  %62 = or i32 %61, %3
  %63 = icmp ugt i32 %62, %.014
  br i1 %63, label %.lr.ph, label %._crit_edge

.lr.ph:                                           ; preds = %59
  %64 = sext i32 %.1 to i64
  br label %65

65:                                               ; preds = %.lr.ph, %65
  %indvars.iv = phi i64 [ %64, %.lr.ph ], [ %indvars.iv.next, %65 ]
  %.11528 = phi i32 [ %.014, %.lr.ph ], [ %70, %65 ]
  %.21827 = phi i32 [ %.117, %.lr.ph ], [ %spec.select, %65 ]
  %66 = lshr i32 %.11528, 16
  %67 = icmp eq i32 %66, %2
  %spec.select = select i1 %67, i32 %.11528, i32 %.21827
  %indvars.iv.next = add nsw i64 %indvars.iv, 1
  %68 = getelementptr inbounds i32, ptr %60, i64 %indvars.iv
  %69 = load i32, ptr %68, align 4, !tbaa !10
  %70 = and i32 %69, -129
  %71 = icmp ugt i32 %62, %70
  br i1 %71, label %65, label %._crit_edge, !llvm.loop !20

._crit_edge:                                      ; preds = %65, %59
  %.218.lcssa = phi i32 [ %.117, %59 ], [ %spec.select, %65 ]
  %72 = and i32 %.218.lcssa, 65535
  ret i32 %72
}